target datalayout = "e-m:e-p270:32:32-p271:32:32-p272:64:64-i64:64-i128:128-f80:128-n8:16:32:64-S128"
target triple = "x86_64-pc-linux-gnu"

%struct.quic_txpim_chunk_st = type { i64, i64, i64, i8 }

; Function Attrs: nounwind uwtable
define internal i32 @compare(ptr noundef %0, ptr noundef %1) #0 {
  %3 = alloca i32, align 4
  %4 = alloca ptr, align 8
  %5 = alloca ptr, align 8
  %6 = alloca ptr, align 8
  %7 = alloca ptr, align 8
  %8 = alloca i32, align 4
  store ptr %0, ptr %4, align 8, !tbaa !49
  store ptr %1, ptr %5, align 8, !tbaa !49
  call void @llvm.lifetime.start.p0(i64 8, ptr %6) #5
  %9 = load ptr, ptr %4, align 8, !tbaa !49
  store ptr %9, ptr %6, align 8, !tbaa !44
  call void @llvm.lifetime.start.p0(i64 8, ptr %7) #5
  %10 = load ptr, ptr %5, align 8, !tbaa !49
  store ptr %10, ptr %7, align 8, !tbaa !44
  %11 = load ptr, ptr %6, align 8, !tbaa !44
  %12 = getelementptr inbounds nuw %struct.quic_txpim_chunk_st, ptr %11, i32 0, i32 0
  %13 = load i64, ptr %12, align 8, !tbaa !50
  %14 = load ptr, ptr %7, align 8, !tbaa !44
  %15 = getelementptr inbounds nuw %struct.quic_txpim_chunk_st, ptr %14, i32 0, i32 0
  %16 = load i64, ptr %15, align 8, !tbaa !50
  %17 = icmp ult i64 %13, %16
  br i1 %17, label %18, label %19

18:                                               ; preds = %2
  store i32 -1, ptr %3, align 4
  store i32 1, ptr %8, align 4
  br label %49

19:                                               ; preds = %2
  %20 = load ptr, ptr %6, align 8, !tbaa !44
  %21 = getelementptr inbounds nuw %struct.quic_txpim_chunk_st, ptr %20, i32 0, i32 0
  %22 = load i64, ptr %21, align 8, !tbaa !50
  %23 = load ptr, ptr %7, align 8, !tbaa !44
  %24 = getelementptr inbounds nuw %struct.quic_txpim_chunk_st, ptr %23, i32 0, i32 0
  %25 = load i64, ptr %24, align 8, !tbaa !50
  %26 = icmp ugt i64 %22, %25
  br i1 %26, label %27, label %28

27:                                               ; preds = %19
  store i32 1, ptr %3, align 4
  store i32 1, ptr %8, align 4
  br label %49

28:                                               ; preds = %19
  br label %29

29:                                               ; preds = %28
  %30 = load ptr, ptr %6, align 8, !tbaa !44
  %31 = getelementptr inbounds nuw %struct.quic_txpim_chunk_st, ptr %30, i32 0, i32 1
  %32 = load i64, ptr %31, align 8, !tbaa !52
  %33 = load ptr, ptr %7, align 8, !tbaa !44
  %34 = getelementptr inbounds nuw %struct.quic_txpim_chunk_st, ptr %33, i32 0, i32 1
  %35 = load i64, ptr %34, align 8, !tbaa !52
  %36 = icmp ult i64 %32, %35
  br i1 %36, label %37, label %38

37:                                               ; preds = %29
  store i32 -1, ptr %3, align 4
  store i32 1, ptr %8, align 4
  br label %49

38:                                               ; preds = %29
  %39 = load ptr, ptr %6, align 8, !tbaa !44
  %40 = getelementptr inbounds nuw %struct.quic_txpim_chunk_st, ptr %39, i32 0, i32 1
  %41 = load i64, ptr %40, align 8, !tbaa !52
  %42 = load ptr, ptr %7, align 8, !tbaa !44
  %43 = getelementptr inbounds nuw %struct.quic_txpim_chunk_st, ptr %42, i32 0, i32 1
  %44 = load i64, ptr %43, align 8, !tbaa !52
  %45 = icmp ugt i64 %41, %44
  br i1 %45, label %46, label %47

46:                                               ; preds = %38
  store i32 1, ptr %3, align 4
  store i32 1, ptr %8, align 4
  br label %49

47:                                               ; preds = %38
  br label %48

48:                                               ; preds = %47
  store i32 0, ptr %3, align 4
  store i32 1, ptr %8, align 4
  br label %49

49:                                               ; preds = %48, %46, %37, %27, %18
  call void @llvm.lifetime.end.p0(i64 8, ptr %7) #5
  call void @llvm.lifetime.end.p0(i64 8, ptr %6) #5
  %50 = load i32, ptr %3, align 4
  ret i32 %50
}